; Function Attrs: mustprogress nounwind uwtable
define hidden void @_ZN16JVMCINMethodData18set_nmethod_mirrorEP7nmethodP7oopDesc(ptr nocapture noundef nonnull readonly align 8 dereferenceable(24) %0, ptr noundef %1, ptr noundef %2) local_unnamed_addr #0 align 2 {
  %4 = getelementptr inbounds i8, ptr %0, i64 4
  %5 = load i32, ptr %4, align 4
  %.not = icmp eq i32 %5, -1
  br i1 %.not, label %6, label %8

6:                                                ; preds = %3
  %7 = load ptr, ptr @g_assert_poison, align 8
  store i8 88, ptr %7, align 1
  tail call void (ptr, i32, ptr, ptr, ...) @_Z15report_vm_errorPKciS0_S0_z(ptr noundef nonnull @.str, i32 noundef 800, ptr noundef nonnull @.str.27, ptr noundef nonnull @.str.28) #17
  unreachable

8:                                                ; preds = %3
  %9 = getelementptr inbounds i8, ptr %1, i64 40
  %10 = load i32, ptr %9, align 8
  %11 = sext i32 %10 to i64
  %12 = getelementptr inbounds i8, ptr %1, i64 %11
  %13 = sext i32 %5 to i64
  %14 = getelementptr ptr, ptr %12, i64 %13
  %15 = getelementptr i8, ptr %14, i64 -8
  %.not8 = icmp eq ptr %2, null
  br i1 %.not8, label %16, label %18

16:                                               ; preds = %8
  %17 = load ptr, ptr @g_assert_poison, align 8
  store i8 88, ptr %17, align 1
  tail call void (ptr, i32, ptr, ptr, ...) @_Z15report_vm_errorPKciS0_S0_z(ptr noundef nonnull @.str, i32 noundef 802, ptr noundef nonnull @.str.29, ptr noundef nonnull @.str.30) #17
  unreachable

18:                                               ; preds = %8
  %19 = load ptr, ptr %15, align 8
  %20 = icmp eq ptr %19, null
  br i1 %20, label %23, label %21

21:                                               ; preds = %18
  %22 = load ptr, ptr @g_assert_poison, align 8
  store i8 88, ptr %22, align 1
  tail call void (ptr, i32, ptr, ptr, ...) @_Z15report_vm_errorPKciS0_S0_z(ptr noundef nonnull @.str, i32 noundef 803, ptr noundef nonnull @.str.31, ptr noundef nonnull @.str.32) #17
  unreachable

23:                                               ; preds = %18
  store ptr %2, ptr %15, align 8
  %24 = load ptr, ptr @CodeCache_lock, align 8
  %.not.i.i = icmp eq ptr %24, null
  br i1 %.not.i.i, label %_ZN11MutexLockerD2Ev.exit.critedge, label %_ZN11MutexLockerC2EP5MutexNS0_18SafepointCheckFlagE.exit

_ZN11MutexLockerC2EP5MutexNS0_18SafepointCheckFlagE.exit: ; preds = %23
  tail call void @_ZN5Mutex28lock_without_safepoint_checkEv(ptr noundef nonnull align 8 dereferenceable(104) %24) #15
  %25 = load ptr, ptr @_ZN8Universe14_collectedHeapE, align 8
  %26 = load ptr, ptr %25, align 8
  %27 = getelementptr inbounds i8, ptr %26, i64 368
  %28 = load ptr, ptr %27, align 8
  tail call void %28(ptr noundef nonnull align 8 dereferenceable(104) %25, ptr noundef nonnull %1) #15
  tail call void @_ZN5Mutex6unlockEv(ptr noundef nonnull align 8 dereferenceable(104) %24) #15
  br label %_ZN11MutexLockerD2Ev.exit

_ZN11MutexLockerD2Ev.exit.critedge:               ; preds = %23
  %29 = load ptr, ptr @_ZN8Universe14_collectedHeapE, align 8
  %30 = load ptr, ptr %29, align 8
  %31 = getelementptr inbounds i8, ptr %30, i64 368
  %32 = load ptr, ptr %31, align 8
  tail call void %32(ptr noundef nonnull align 8 dereferenceable(104) %29, ptr noundef nonnull %1) #15
  br label %_ZN11MutexLockerD2Ev.exit

_ZN11MutexLockerD2Ev.exit:                        ; preds = %_ZN11MutexLockerD2Ev.exit.critedge, %_ZN11MutexLockerC2EP5MutexNS0_18SafepointCheckFlagE.exit
  ret void
}